; Function Attrs: null_pointer_is_valid sspstrong uwtable
define internal i32 @dissect_mbtcp_pdu(ptr noundef %0, ptr noundef %1, ptr noundef %2, ptr readnone captures(none) %3) #0 {
  %5 = getelementptr inbounds nuw i8, ptr %1, i64 8
  %6 = load ptr, ptr %5, align 8
  tail call void @col_set_str(ptr noundef %6, i32 noundef 35, ptr noundef nonnull @.str.154)
  %7 = load ptr, ptr %5, align 8
  tail call void @col_clear(ptr noundef %7, i32 noundef 25)
  %8 = load i32, ptr @proto_mbtcp, align 4
  %9 = load ptr, ptr @global_mbus_tcp_ports, align 8
  %10 = tail call fastcc i32 @dissect_mbtcp_pdu_common(ptr noundef %0, ptr noundef %1, ptr noundef %2, i32 noundef %8, ptr noundef %9)
  ret i32 %10
}